target datalayout = "e-m:e-p270:32:32-p271:32:32-p272:64:64-i64:64-i128:128-f80:128-n8:16:32:64-S128"
target triple = "x86_64-pc-linux-gnu"

%struct.Aig_Obj_t_ = type { %union.anon, ptr, ptr, i64, i32, i32, %union.anon.0 }
%union.anon = type { ptr }
%union.anon.0 = type { ptr }
%struct.Aig_Man_t_ = type { ptr, ptr, ptr, ptr, ptr, ptr, ptr, %struct.Aig_Obj_t_, i32, i32, i32, i32, i32, i32, [7 x i32], i32, ptr, i32, ptr, i32, ptr, i32, i32, i32, ptr, i32, i32, i32, i32, i32, ptr, ptr, i32, ptr, ptr, i32, ptr, ptr, i32, i32, i32, ptr, ptr, ptr, ptr, ptr, ptr, ptr, ptr, ptr, ptr, ptr, ptr, ptr, ptr, i32, ptr, ptr, ptr, ptr, i32, i64, i64, i64, ptr, ptr }
%struct.Gia_Man_t_ = type { ptr, ptr, i32, i32, i32, i32, ptr, ptr, i32, i32, i32, ptr, ptr, %struct.Vec_Int_t_, %struct.Vec_Int_t_, i32, i32, i32, %struct.Vec_Int_t_, ptr, ptr, ptr, i32, i32, i32, i32, ptr, ptr, ptr, ptr, ptr, i32, i32, ptr, i32, ptr, ptr, ptr, ptr, ptr, ptr, ptr, ptr, ptr, ptr, ptr, ptr, ptr, ptr, ptr, ptr, ptr, ptr, %struct.Vec_Int_t_, %struct.Vec_Int_t_, ptr, ptr, ptr, ptr, ptr, ptr, ptr, ptr, ptr, ptr, ptr, ptr, ptr, ptr, ptr, ptr, ptr, ptr, ptr, ptr, ptr, i32, float, float, ptr, ptr, i32, ptr, ptr, ptr, ptr, ptr, ptr, ptr, ptr, ptr, ptr, ptr, ptr, ptr, ptr, ptr, i64, i64, ptr, ptr, i32, i32, i32, i32, i32, i32, i32, i32, i32, i32, i32, i32, ptr, ptr, ptr, ptr, ptr, ptr, ptr, ptr, i32, i32, i32, ptr, i32, i32, ptr, ptr, ptr, ptr, ptr, ptr, i32, i32, ptr, %struct.Vec_Int_t_, %struct.Vec_Int_t_, %struct.Vec_Int_t_, ptr, ptr, ptr, i32, i32, i32, i32, ptr, ptr, ptr, ptr, ptr }
%struct.Vec_Int_t_ = type { i32, i32, ptr }
%struct.Gia_Obj_t_ = type <{ i64, i32 }>

; Function Attrs: inlinehint nounwind uwtable
define internal ptr @Gia_ManObj(ptr noundef %0, i32 noundef %1) #2 {
  %3 = alloca ptr, align 8
  %4 = alloca i32, align 4
  store ptr %0, ptr %3, align 8, !tbaa !3
  store i32 %1, ptr %4, align 4, !tbaa !26
  %5 = load ptr, ptr %3, align 8, !tbaa !3
  %6 = getelementptr inbounds nuw %struct.Gia_Man_t_, ptr %5, i32 0, i32 6
  %7 = load ptr, ptr %6, align 8, !tbaa !73
  %8 = load i32, ptr %4, align 4, !tbaa !26
  %9 = sext i32 %8 to i64
  %10 = getelementptr inbounds %struct.Gia_Obj_t_, ptr %7, i64 %9
  ret ptr %10
}

; Function Attrs: inlinehint nounwind uwtable
define internal i32 @Gia_ObjFaninC1(ptr noundef %0) #2 {
  %2 = alloca ptr, align 8
  store ptr %0, ptr %2, align 8, !tbaa !42
  %3 = load ptr, ptr %2, align 8, !tbaa !42
  %4 = load i64, ptr %3, align 4
  %5 = lshr i64 %4, 61
  %6 = and i64 %5, 1
  %7 = trunc i64 %6 to i32
  ret i32 %7
}

; Function Attrs: inlinehint nounwind uwtable
define internal i32 @Gia_ObjFaninId1(ptr noundef %0, i32 noundef %1) #2 {
  %3 = alloca ptr, align 8
  %4 = alloca i32, align 4
  store ptr %0, ptr %3, align 8, !tbaa !42
  store i32 %1, ptr %4, align 4, !tbaa !26
  %5 = load i32, ptr %4, align 4, !tbaa !26
  %6 = load ptr, ptr %3, align 8, !tbaa !42
  %7 = load i64, ptr %6, align 4
  %8 = lshr i64 %7, 32
  %9 = and i64 %8, 536870911
  %10 = trunc i64 %9 to i32
  %11 = sub nsw i32 %5, %10
  ret i32 %11
}

; Function Attrs: inlinehint nounwind uwtable
define internal ptr @Aig_NotCond(ptr noundef %0, i32 noundef %1) #2 {
  %3 = alloca ptr, align 8
  %4 = alloca i32, align 4
  store ptr %0, ptr %3, align 8, !tbaa !10
  store i32 %1, ptr %4, align 4, !tbaa !26
  %5 = load ptr, ptr %3, align 8, !tbaa !10
  %6 = ptrtoint ptr %5 to i64
  %7 = load i32, ptr %4, align 4, !tbaa !26
  %8 = sext i32 %7 to i64
  %9 = xor i64 %6, %8
  %10 = inttoptr i64 %9 to ptr
  ret ptr %10
}

; Function Attrs: inlinehint nounwind uwtable
define internal i32 @Gia_ObjFaninC0(ptr noundef %0) #2 {
  %2 = alloca ptr, align 8
  store ptr %0, ptr %2, align 8, !tbaa !42
  %3 = load ptr, ptr %2, align 8, !tbaa !42
  %4 = load i64, ptr %3, align 4
  %5 = lshr i64 %4, 29
  %6 = and i64 %5, 1
  %7 = trunc i64 %6 to i32
  ret i32 %7
}

; Function Attrs: inlinehint nounwind uwtable
define internal i32 @Gia_ObjFaninId0(ptr noundef %0, i32 noundef %1) #2 {
  %3 = alloca ptr, align 8
  %4 = alloca i32, align 4
  store ptr %0, ptr %3, align 8, !tbaa !42
  store i32 %1, ptr %4, align 4, !tbaa !26
  %5 = load i32, ptr %4, align 4, !tbaa !26
  %6 = load ptr, ptr %3, align 8, !tbaa !42
  %7 = load i64, ptr %6, align 4
  %8 = and i64 %7, 536870911
  %9 = trunc i64 %8 to i32
  %10 = sub nsw i32 %5, %9
  ret i32 %10
}

; Function Attrs: inlinehint nounwind uwtable
define internal ptr @Aig_Regular(ptr noundef %0) #2 {
  %2 = alloca ptr, align 8
  store ptr %0, ptr %2, align 8, !tbaa !10
  %3 = load ptr, ptr %2, align 8, !tbaa !10
  %4 = ptrtoint ptr %3 to i64
  %5 = and i64 %4, -2
  %6 = inttoptr i64 %5 to ptr
  ret ptr %6
}

; Function Attrs: inlinehint nounwind uwtable
define internal ptr @Gia_ObjNextObj(ptr noundef %0, i32 noundef %1) #2 {
  %3 = alloca ptr, align 8
  %4 = alloca i32, align 4
  store ptr %0, ptr %3, align 8, !tbaa !3
  store i32 %1, ptr %4, align 4, !tbaa !26
  %5 = load ptr, ptr %3, align 8, !tbaa !3
  %6 = getelementptr inbounds nuw %struct.Gia_Man_t_, ptr %5, i32 0, i32 28
  %7 = load ptr, ptr %6, align 8, !tbaa !27
  %8 = load i32, ptr %4, align 4, !tbaa !26
  %9 = sext i32 %8 to i64
  %10 = getelementptr inbounds i32, ptr %7, i64 %9
  %11 = load i32, ptr %10, align 4, !tbaa !26
  %12 = icmp eq i32 %11, 0
  br i1 %12, label %13, label %14

13:                                               ; preds = %2
  br label %24

14:                                               ; preds = %2
  %15 = load ptr, ptr %3, align 8, !tbaa !3
  %16 = load ptr, ptr %3, align 8, !tbaa !3
  %17 = getelementptr inbounds nuw %struct.Gia_Man_t_, ptr %16, i32 0, i32 28
  %18 = load ptr, ptr %17, align 8, !tbaa !27
  %19 = load i32, ptr %4, align 4, !tbaa !26
  %20 = sext i32 %19 to i64
  %21 = getelementptr inbounds i32, ptr %18, i64 %20
  %22 = load i32, ptr %21, align 4, !tbaa !26
  %23 = call ptr @Gia_ManObj(ptr noundef %15, i32 noundef %22)
  br label %24

24:                                               ; preds = %14, %13
  %25 = phi ptr [ null, %13 ], [ %23, %14 ]
  ret ptr %25
}

; Function Attrs: inlinehint nounwind uwtable
define internal ptr @Gia_ObjChild1Copy2(ptr noundef %0, ptr noundef %1, i32 noundef %2) #2 {
  %4 = alloca ptr, align 8
  %5 = alloca ptr, align 8
  %6 = alloca i32, align 4
  store ptr %0, ptr %4, align 8, !tbaa !87
  store ptr %1, ptr %5, align 8, !tbaa !42
  store i32 %2, ptr %6, align 4, !tbaa !26
  %7 = load ptr, ptr %4, align 8, !tbaa !87
  %8 = load ptr, ptr %5, align 8, !tbaa !42
  %9 = load i32, ptr %6, align 4, !tbaa !26
  %10 = call i32 @Gia_ObjFaninId1(ptr noundef %8, i32 noundef %9)
  %11 = sext i32 %10 to i64
  %12 = getelementptr inbounds ptr, ptr %7, i64 %11
  %13 = load ptr, ptr %12, align 8, !tbaa !10
  %14 = load ptr, ptr %5, align 8, !tbaa !42
  %15 = call i32 @Gia_ObjFaninC1(ptr noundef %14)
  %16 = call ptr @Aig_NotCond(ptr noundef %13, i32 noundef %15)
  ret ptr %16
}

; Function Attrs: inlinehint nounwind uwtable
define internal ptr @Gia_ObjChild0Copy2(ptr noundef %0, ptr noundef %1, i32 noundef %2) #2 {
  %4 = alloca ptr, align 8
  %5 = alloca ptr, align 8
  %6 = alloca i32, align 4
  store ptr %0, ptr %4, align 8, !tbaa !87
  store ptr %1, ptr %5, align 8, !tbaa !42
  store i32 %2, ptr %6, align 4, !tbaa !26
  %7 = load ptr, ptr %4, align 8, !tbaa !87
  %8 = load ptr, ptr %5, align 8, !tbaa !42
  %9 = load i32, ptr %6, align 4, !tbaa !26
  %10 = call i32 @Gia_ObjFaninId0(ptr noundef %8, i32 noundef %9)
  %11 = sext i32 %10 to i64
  %12 = getelementptr inbounds ptr, ptr %7, i64 %11
  %13 = load ptr, ptr %12, align 8, !tbaa !10
  %14 = load ptr, ptr %5, align 8, !tbaa !42
  %15 = call i32 @Gia_ObjFaninC0(ptr noundef %14)
  %16 = call ptr @Aig_NotCond(ptr noundef %13, i32 noundef %15)
  ret ptr %16
}

; Function Attrs: inlinehint nounwind uwtable
define internal ptr @Gia_ObjFanin1(ptr noundef %0) #2 {
  %2 = alloca ptr, align 8
  store ptr %0, ptr %2, align 8, !tbaa !42
  %3 = load ptr, ptr %2, align 8, !tbaa !42
  %4 = load ptr, ptr %2, align 8, !tbaa !42
  %5 = load i64, ptr %4, align 4
  %6 = lshr i64 %5, 32
  %7 = and i64 %6, 536870911
  %8 = trunc i64 %7 to i32
  %9 = sext i32 %8 to i64
  %10 = sub i64 0, %9
  %11 = getelementptr inbounds %struct.Gia_Obj_t_, ptr %3, i64 %10
  ret ptr %11
}

; Function Attrs: inlinehint nounwind uwtable
define internal ptr @Gia_ObjFanin0(ptr noundef %0) #2 {
  %2 = alloca ptr, align 8
  store ptr %0, ptr %2, align 8, !tbaa !42
  %3 = load ptr, ptr %2, align 8, !tbaa !42
  %4 = load ptr, ptr %2, align 8, !tbaa !42
  %5 = load i64, ptr %4, align 4
  %6 = and i64 %5, 536870911
  %7 = trunc i64 %6 to i32
  %8 = sext i32 %7 to i64
  %9 = sub i64 0, %8
  %10 = getelementptr inbounds %struct.Gia_Obj_t_, ptr %3, i64 %9
  ret ptr %10
}

; Function Attrs: inlinehint nounwind uwtable
define internal i32 @Gia_ObjIsCi(ptr noundef %0) #2 {
  %2 = alloca ptr, align 8
  store ptr %0, ptr %2, align 8, !tbaa !42
  %3 = load ptr, ptr %2, align 8, !tbaa !42
  %4 = load i64, ptr %3, align 4
  %5 = lshr i64 %4, 31
  %6 = and i64 %5, 1
  %7 = trunc i64 %6 to i32
  %8 = icmp ne i32 %7, 0
  br i1 %8, label %9, label %15

9:                                                ; preds = %1
  %10 = load ptr, ptr %2, align 8, !tbaa !42
  %11 = load i64, ptr %10, align 4
  %12 = and i64 %11, 536870911
  %13 = trunc i64 %12 to i32
  %14 = icmp eq i32 %13, 536870911
  br label %15

15:                                               ; preds = %9, %1
  %16 = phi i1 [ false, %1 ], [ %14, %9 ]
  %17 = zext i1 %16 to i32
  ret i32 %17
}

; Function Attrs: inlinehint nounwind uwtable
define internal i32 @Gia_ObjId(ptr noundef %0, ptr noundef %1) #2 {
  %3 = alloca ptr, align 8
  %4 = alloca ptr, align 8
  store ptr %0, ptr %3, align 8, !tbaa !3
  store ptr %1, ptr %4, align 8, !tbaa !42
  %5 = load ptr, ptr %4, align 8, !tbaa !42
  %6 = load ptr, ptr %3, align 8, !tbaa !3
  %7 = getelementptr inbounds nuw %struct.Gia_Man_t_, ptr %6, i32 0, i32 6
  %8 = load ptr, ptr %7, align 8, !tbaa !73
  %9 = ptrtoint ptr %5 to i64
  %10 = ptrtoint ptr %8 to i64
  %11 = sub i64 %9, %10
  %12 = sdiv exact i64 %11, 12
  %13 = trunc i64 %12 to i32
  ret i32 %13
}

; Function Attrs: nounwind uwtable
define void @Gia_ManToAig_rec(ptr noundef %0, ptr noundef %1, ptr noundef %2, ptr noundef %3) #0 {
  %5 = alloca ptr, align 8
  %6 = alloca ptr, align 8
  %7 = alloca ptr, align 8
  %8 = alloca ptr, align 8
  %9 = alloca ptr, align 8
  %10 = alloca i32, align 4
  %11 = alloca ptr, align 8
  %12 = alloca ptr, align 8
  store ptr %0, ptr %5, align 8, !tbaa !8
  store ptr %1, ptr %6, align 8, !tbaa !87
  store ptr %2, ptr %7, align 8, !tbaa !3
  store ptr %3, ptr %8, align 8, !tbaa !42
  call void @llvm.lifetime.start.p0(i64 8, ptr %9) #12
  %13 = load ptr, ptr %6, align 8, !tbaa !87
  %14 = load ptr, ptr %7, align 8, !tbaa !3
  %15 = load ptr, ptr %8, align 8, !tbaa !42
  %16 = call i32 @Gia_ObjId(ptr noundef %14, ptr noundef %15)
  %17 = sext i32 %16 to i64
  %18 = getelementptr inbounds ptr, ptr %13, i64 %17
  %19 = load ptr, ptr %18, align 8, !tbaa !10
  %20 = icmp ne ptr %19, null
  br i1 %20, label %21, label %22

21:                                               ; preds = %4
  store i32 1, ptr %10, align 4
  br label %115

22:                                               ; preds = %4
  %23 = load ptr, ptr %8, align 8, !tbaa !42
  %24 = call i32 @Gia_ObjIsCi(ptr noundef %23)
  %25 = icmp ne i32 %24, 0
  br i1 %25, label %26, label %35

26:                                               ; preds = %22
  %27 = load ptr, ptr %5, align 8, !tbaa !8
  %28 = call ptr @Aig_ObjCreateCi(ptr noundef %27)
  %29 = load ptr, ptr %6, align 8, !tbaa !87
  %30 = load ptr, ptr %7, align 8, !tbaa !3
  %31 = load ptr, ptr %8, align 8, !tbaa !42
  %32 = call i32 @Gia_ObjId(ptr noundef %30, ptr noundef %31)
  %33 = sext i32 %32 to i64
  %34 = getelementptr inbounds ptr, ptr %29, i64 %33
  store ptr %28, ptr %34, align 8, !tbaa !10
  br label %66

35:                                               ; preds = %22
  %36 = load ptr, ptr %5, align 8, !tbaa !8
  %37 = load ptr, ptr %6, align 8, !tbaa !87
  %38 = load ptr, ptr %7, align 8, !tbaa !3
  %39 = load ptr, ptr %8, align 8, !tbaa !42
  %40 = call ptr @Gia_ObjFanin0(ptr noundef %39)
  call void @Gia_ManToAig_rec(ptr noundef %36, ptr noundef %37, ptr noundef %38, ptr noundef %40)
  %41 = load ptr, ptr %5, align 8, !tbaa !8
  %42 = load ptr, ptr %6, align 8, !tbaa !87
  %43 = load ptr, ptr %7, align 8, !tbaa !3
  %44 = load ptr, ptr %8, align 8, !tbaa !42
  %45 = call ptr @Gia_ObjFanin1(ptr noundef %44)
  call void @Gia_ManToAig_rec(ptr noundef %41, ptr noundef %42, ptr noundef %43, ptr noundef %45)
  %46 = load ptr, ptr %5, align 8, !tbaa !8
  %47 = load ptr, ptr %6, align 8, !tbaa !87
  %48 = load ptr, ptr %8, align 8, !tbaa !42
  %49 = load ptr, ptr %7, align 8, !tbaa !3
  %50 = load ptr, ptr %8, align 8, !tbaa !42
  %51 = call i32 @Gia_ObjId(ptr noundef %49, ptr noundef %50)
  %52 = call ptr @Gia_ObjChild0Copy2(ptr noundef %47, ptr noundef %48, i32 noundef %51)
  %53 = load ptr, ptr %6, align 8, !tbaa !87
  %54 = load ptr, ptr %8, align 8, !tbaa !42
  %55 = load ptr, ptr %7, align 8, !tbaa !3
  %56 = load ptr, ptr %8, align 8, !tbaa !42
  %57 = call i32 @Gia_ObjId(ptr noundef %55, ptr noundef %56)
  %58 = call ptr @Gia_ObjChild1Copy2(ptr noundef %53, ptr noundef %54, i32 noundef %57)
  %59 = call ptr @Aig_And(ptr noundef %46, ptr noundef %52, ptr noundef %58)
  %60 = load ptr, ptr %6, align 8, !tbaa !87
  %61 = load ptr, ptr %7, align 8, !tbaa !3
  %62 = load ptr, ptr %8, align 8, !tbaa !42
  %63 = call i32 @Gia_ObjId(ptr noundef %61, ptr noundef %62)
  %64 = sext i32 %63 to i64
  %65 = getelementptr inbounds ptr, ptr %60, i64 %64
  store ptr %59, ptr %65, align 8, !tbaa !10
  br label %66

66:                                               ; preds = %35, %26
  %67 = load ptr, ptr %5, align 8, !tbaa !8
  %68 = getelementptr inbounds nuw %struct.Aig_Man_t_, ptr %67, i32 0, i32 30
  %69 = load ptr, ptr %68, align 8, !tbaa !13
  %70 = icmp ne ptr %69, null
  br i1 %70, label %71, label %114

71:                                               ; preds = %66
  %72 = load ptr, ptr %7, align 8, !tbaa !3
  %73 = load ptr, ptr %7, align 8, !tbaa !3
  %74 = load ptr, ptr %8, align 8, !tbaa !42
  %75 = call i32 @Gia_ObjId(ptr noundef %73, ptr noundef %74)
  %76 = call ptr @Gia_ObjNextObj(ptr noundef %72, i32 noundef %75)
  store ptr %76, ptr %9, align 8, !tbaa !42
  %77 = icmp ne ptr %76, null
  br i1 %77, label %78, label %114

78:                                               ; preds = %71
  call void @llvm.lifetime.start.p0(i64 8, ptr %11) #12
  call void @llvm.lifetime.start.p0(i64 8, ptr %12) #12
  %79 = load ptr, ptr %5, align 8, !tbaa !8
  %80 = load ptr, ptr %6, align 8, !tbaa !87
  %81 = load ptr, ptr %7, align 8, !tbaa !3
  %82 = load ptr, ptr %9, align 8, !tbaa !42
  call void @Gia_ManToAig_rec(ptr noundef %79, ptr noundef %80, ptr noundef %81, ptr noundef %82)
  %83 = load ptr, ptr %6, align 8, !tbaa !87
  %84 = load ptr, ptr %7, align 8, !tbaa !3
  %85 = load ptr, ptr %8, align 8, !tbaa !42
  %86 = call i32 @Gia_ObjId(ptr noundef %84, ptr noundef %85)
  %87 = sext i32 %86 to i64
  %88 = getelementptr inbounds ptr, ptr %83, i64 %87
  %89 = load ptr, ptr %88, align 8, !tbaa !10
  store ptr %89, ptr %11, align 8, !tbaa !10
  %90 = load ptr, ptr %6, align 8, !tbaa !87
  %91 = load ptr, ptr %7, align 8, !tbaa !3
  %92 = load ptr, ptr %9, align 8, !tbaa !42
  %93 = call i32 @Gia_ObjId(ptr noundef %91, ptr noundef %92)
  %94 = sext i32 %93 to i64
  %95 = getelementptr inbounds ptr, ptr %90, i64 %94
  %96 = load ptr, ptr %95, align 8, !tbaa !10
  store ptr %96, ptr %12, align 8, !tbaa !10
  %97 = load ptr, ptr %5, align 8, !tbaa !8
  %98 = getelementptr inbounds nuw %struct.Aig_Man_t_, ptr %97, i32 0, i32 30
  %99 = load ptr, ptr %98, align 8, !tbaa !13
  %100 = icmp ne ptr %99, null
  br i1 %100, label %101, label %113

101:                                              ; preds = %78
  %102 = load ptr, ptr %12, align 8, !tbaa !10
  %103 = call ptr @Aig_Regular(ptr noundef %102)
  %104 = load ptr, ptr %5, align 8, !tbaa !8
  %105 = getelementptr inbounds nuw %struct.Aig_Man_t_, ptr %104, i32 0, i32 30
  %106 = load ptr, ptr %105, align 8, !tbaa !13
  %107 = load ptr, ptr %11, align 8, !tbaa !10
  %108 = call ptr @Aig_Regular(ptr noundef %107)
  %109 = getelementptr inbounds nuw %struct.Aig_Obj_t_, ptr %108, i32 0, i32 5
  %110 = load i32, ptr %109, align 4, !tbaa !47
  %111 = sext i32 %110 to i64
  %112 = getelementptr inbounds ptr, ptr %106, i64 %111
  store ptr %103, ptr %112, align 8, !tbaa !10
  br label %113

113:                                              ; preds = %101, %78
  call void @llvm.lifetime.end.p0(i64 8, ptr %12) #12
  call void @llvm.lifetime.end.p0(i64 8, ptr %11) #12
  br label %114

114:                                              ; preds = %113, %71, %66
  store i32 0, ptr %10, align 4
  br label %115

115:                                              ; preds = %114, %21
  call void @llvm.lifetime.end.p0(i64 8, ptr %9) #12
  %116 = load i32, ptr %10, align 4
  switch i32 %116, label %118 [
    i32 0, label %117
    i32 1, label %117
  ]

117:                                              ; preds = %115, %115
  ret void

118:                                              ; preds = %115
  unreachable
}