; Function Attrs: nounwind uwtable
define void @Gia_ManToAig_rec(ptr noundef %0, ptr noundef %1, ptr noundef %2, ptr noundef %3) local_unnamed_addr #0 {
  %5 = getelementptr i8, ptr %2, i64 32
  %.val56 = load ptr, ptr %5, align 8, !tbaa !41
  %6 = ptrtoint ptr %3 to i64
  %7 = ptrtoint ptr %.val56 to i64
  %8 = sub i64 %6, %7
  %9 = sdiv exact i64 %8, 12
  %sext = shl i64 %9, 32
  %10 = ashr exact i64 %sext, 29
  %11 = getelementptr inbounds i8, ptr %1, i64 %10
  %12 = load ptr, ptr %11, align 8, !tbaa !25
  %.not = icmp eq ptr %12, null
  br i1 %.not, label %13, label %Gia_ObjNextObj.exit.thread

13:                                               ; preds = %4
  %.val57 = load i64, ptr %3, align 4
  %14 = and i64 %.val57, 2684354559
  %narrow.i.not = icmp eq i64 %14, 2684354559
  br i1 %narrow.i.not, label %15, label %17

15:                                               ; preds = %13
  %16 = tail call ptr @Aig_ObjCreateCi(ptr noundef %0) #17
  br label %51

17:                                               ; preds = %13
  %18 = and i64 %.val57, 536870911
  %19 = sub nsw i64 0, %18
  %20 = getelementptr inbounds %struct.Gia_Obj_t_, ptr %3, i64 %19
  tail call void @Gia_ManToAig_rec(ptr noundef %0, ptr noundef nonnull %1, ptr noundef nonnull %2, ptr noundef nonnull %20)
  %21 = load i64, ptr %3, align 4
  %22 = lshr i64 %21, 32
  %23 = and i64 %22, 536870911
  %24 = sub nsw i64 0, %23
  %25 = getelementptr inbounds %struct.Gia_Obj_t_, ptr %3, i64 %24
  tail call void @Gia_ManToAig_rec(ptr noundef %0, ptr noundef nonnull %1, ptr noundef nonnull %2, ptr noundef nonnull %25)
  %.val54 = load ptr, ptr %5, align 8, !tbaa !41
  %26 = ptrtoint ptr %.val54 to i64
  %27 = sub i64 %6, %26
  %28 = sdiv exact i64 %27, 12
  %.val58 = load i64, ptr %3, align 4
  %29 = and i64 %.val58, 536870911
  %30 = sub nsw i64 %28, %29
  %sext62 = shl i64 %30, 32
  %31 = ashr exact i64 %sext62, 29
  %32 = getelementptr inbounds i8, ptr %1, i64 %31
  %33 = load ptr, ptr %32, align 8, !tbaa !25
  %34 = lshr i64 %.val58, 29
  %35 = and i64 %34, 1
  %36 = ptrtoint ptr %33 to i64
  %37 = xor i64 %35, %36
  %38 = inttoptr i64 %37 to ptr
  %39 = lshr i64 %.val58, 32
  %40 = and i64 %39, 536870911
  %41 = sub nsw i64 %28, %40
  %sext63 = shl i64 %41, 32
  %42 = ashr exact i64 %sext63, 29
  %43 = getelementptr inbounds i8, ptr %1, i64 %42
  %44 = load ptr, ptr %43, align 8, !tbaa !25
  %45 = lshr i64 %.val58, 61
  %46 = and i64 %45, 1
  %47 = ptrtoint ptr %44 to i64
  %48 = xor i64 %46, %47
  %49 = inttoptr i64 %48 to ptr
  %50 = tail call ptr @Aig_And(ptr noundef %0, ptr noundef %38, ptr noundef %49) #17
  br label %51

51:                                               ; preds = %17, %15
  %.sink = phi ptr [ %50, %17 ], [ %16, %15 ]
  %.val52 = load ptr, ptr %5, align 8, !tbaa !41
  %52 = ptrtoint ptr %.val52 to i64
  %53 = sub i64 %6, %52
  %54 = sdiv exact i64 %53, 12
  %sext64 = shl i64 %54, 32
  %55 = ashr exact i64 %sext64, 29
  %56 = getelementptr inbounds i8, ptr %1, i64 %55
  store ptr %.sink, ptr %56, align 8, !tbaa !25
  %57 = getelementptr inbounds nuw i8, ptr %0, i64 248
  %58 = load ptr, ptr %57, align 8, !tbaa !12
  %.not47 = icmp eq ptr %58, null
  br i1 %.not47, label %Gia_ObjNextObj.exit.thread, label %59

59:                                               ; preds = %51
  %60 = ptrtoint ptr %.val52 to i64
  %61 = sub i64 %6, %60
  %62 = sdiv exact i64 %61, 12
  %63 = getelementptr inbounds nuw i8, ptr %2, i64 200
  %64 = load ptr, ptr %63, align 8, !tbaa !26
  %sext65 = shl i64 %62, 32
  %65 = ashr exact i64 %sext65, 30
  %66 = getelementptr inbounds i8, ptr %64, i64 %65
  %67 = load i32, ptr %66, align 4, !tbaa !40
  %68 = icmp eq i32 %67, 0
  br i1 %68, label %Gia_ObjNextObj.exit.thread, label %Gia_ObjNextObj.exit

Gia_ObjNextObj.exit:                              ; preds = %59
  %69 = sext i32 %67 to i64
  %70 = getelementptr inbounds %struct.Gia_Obj_t_, ptr %.val52, i64 %69
  tail call void @Gia_ManToAig_rec(ptr noundef nonnull %0, ptr noundef nonnull %1, ptr noundef nonnull %2, ptr noundef nonnull %70)
  %71 = load ptr, ptr %57, align 8, !tbaa !12
  %.not49 = icmp eq ptr %71, null
  br i1 %.not49, label %Gia_ObjNextObj.exit.thread, label %72

72:                                               ; preds = %Gia_ObjNextObj.exit
  %73 = ptrtoint ptr %70 to i64
  %.val50 = load ptr, ptr %5, align 8, !tbaa !41
  %74 = ptrtoint ptr %.val50 to i64
  %75 = sub i64 %73, %74
  %76 = sdiv exact i64 %75, 12
  %77 = sub i64 %6, %74
  %78 = sdiv exact i64 %77, 12
  %sext66 = shl i64 %78, 32
  %79 = ashr exact i64 %sext66, 29
  %80 = getelementptr inbounds i8, ptr %1, i64 %79
  %81 = load ptr, ptr %80, align 8, !tbaa !25
  %sext67 = shl i64 %76, 32
  %82 = ashr exact i64 %sext67, 29
  %83 = getelementptr inbounds i8, ptr %1, i64 %82
  %84 = load ptr, ptr %83, align 8, !tbaa !25
  %85 = ptrtoint ptr %84 to i64
  %86 = and i64 %85, -2
  %87 = inttoptr i64 %86 to ptr
  %88 = ptrtoint ptr %81 to i64
  %89 = and i64 %88, -2
  %90 = inttoptr i64 %89 to ptr
  %91 = getelementptr inbounds nuw i8, ptr %90, i64 36
  %92 = load i32, ptr %91, align 4, !tbaa !24
  %93 = sext i32 %92 to i64
  %94 = getelementptr inbounds ptr, ptr %71, i64 %93
  store ptr %87, ptr %94, align 8, !tbaa !25
  br label %Gia_ObjNextObj.exit.thread

Gia_ObjNextObj.exit.thread:                       ; preds = %59, %51, %72, %Gia_ObjNextObj.exit, %4
  ret void
}